; Function Attrs: nounwind uwtable
define hidden void @_ZThn24_N5osgeo4proj9operation17InverseConversionD0Ev(ptr noundef nonnull %0) unnamed_addr #4 align 2 personality ptr @__gxx_personality_v0 {
  %2 = getelementptr inbounds i8, ptr %0, i64 -24
  tail call void @_ZN5osgeo4proj9operation26InverseCoordinateOperationD2Ev(ptr noundef nonnull align 8 dereferenceable(25) %0, ptr noundef nonnull getelementptr inbounds nuw (i8, ptr @_ZTTN5osgeo4proj9operation17InverseConversionE, i64 104)) #32
  store ptr getelementptr inbounds nuw inrange(-24, 72) (i8, ptr @_ZTCN5osgeo4proj9operation17InverseConversionE0_NS1_10ConversionE, i64 24), ptr %2, align 8, !tbaa !3
  %3 = getelementptr inbounds nuw i8, ptr %0, i64 32
  store ptr getelementptr inbounds nuw inrange(-88, 56) (i8, ptr @_ZTCN5osgeo4proj9operation17InverseConversionE0_NS1_10ConversionE, i64 184), ptr %3, align 8, !tbaa !3
  %4 = getelementptr i8, ptr %0, i64 48
  store ptr getelementptr inbounds nuw inrange(-16, 24) (i8, ptr @_ZTCN5osgeo4proj9operation17InverseConversionE0_NS1_10ConversionE, i64 256), ptr %4, align 8, !tbaa !3
  %5 = getelementptr i8, ptr %0, i64 56
  store ptr getelementptr inbounds nuw inrange(-16, 24) (i8, ptr @_ZTCN5osgeo4proj9operation17InverseConversionE0_NS1_10ConversionE, i64 296), ptr %5, align 8, !tbaa !3
  %6 = getelementptr i8, ptr %0, i64 80
  store ptr getelementptr inbounds nuw inrange(-16, 24) (i8, ptr @_ZTCN5osgeo4proj9operation17InverseConversionE0_NS1_10ConversionE, i64 336), ptr %6, align 8, !tbaa !3
  %7 = getelementptr i8, ptr %0, i64 88
  store ptr getelementptr inbounds nuw inrange(-16, 24) (i8, ptr @_ZTCN5osgeo4proj9operation17InverseConversionE0_NS1_10ConversionE, i64 376), ptr %7, align 8, !tbaa !3
  %8 = getelementptr inbounds i8, ptr %0, i64 -8
  %9 = load ptr, ptr %8, align 8, !tbaa !11
  %.not.i.i.i.i.i = icmp eq ptr %9, null
  br i1 %.not.i.i.i.i.i, label %_ZN5osgeo4proj9operation17InverseConversionD0Ev.exit, label %_ZNKSt14default_deleteIN5osgeo4proj9operation10Conversion7PrivateEEclEPS4_.exit.i.i.i.i.i

_ZNKSt14default_deleteIN5osgeo4proj9operation10Conversion7PrivateEEclEPS4_.exit.i.i.i.i.i: ; preds = %1
  tail call void @_ZdlPvm(ptr noundef nonnull %9, i64 noundef 1) #31
  br label %_ZN5osgeo4proj9operation17InverseConversionD0Ev.exit

_ZN5osgeo4proj9operation17InverseConversionD0Ev.exit: ; preds = %1, %_ZNKSt14default_deleteIN5osgeo4proj9operation10Conversion7PrivateEEclEPS4_.exit.i.i.i.i.i
  store ptr null, ptr %8, align 8, !tbaa !11
  tail call void @_ZN5osgeo4proj9operation15SingleOperationD2Ev(ptr noundef nonnull align 8 dereferenceable(49) %2, ptr noundef nonnull getelementptr inbounds nuw (i8, ptr @_ZTTN5osgeo4proj9operation17InverseConversionE, i64 16)) #32
  tail call void @_ZN5osgeo4proj9operation19CoordinateOperationD2Ev(ptr noundef nonnull align 8 dereferenceable(72) %3) #32
  tail call void @_ZdlPvm(ptr noundef nonnull align 8 dereferenceable(49) %2, i64 noundef 128) #31
  ret void
}